target datalayout = "e-m:e-p270:32:32-p271:32:32-p272:64:64-i64:64-i128:128-f80:128-n8:16:32:64-S128"
target triple = "x86_64-pc-linux-gnu"

%struct.cLLog_private = type { i32, i32, [5 x i8], [5 x i8], [20 x i8], i32, i32, %struct.cCLLog_timeStamp_t, [20 x i8], i8, i8, i8, i8, i8, i8, i32, i32, i32, [7 x ptr], %struct.cCLLog_timeStamp_t }
%struct.cCLLog_timeStamp_t = type { i64, i16 }

@.str.23 = private unnamed_addr constant [18 x i8] c"hardware revision\00", align 1
@.str.24 = private unnamed_addr constant [22 x i8] c"cllog: %s is too long\00", align 1

; Function Attrs: alwaysinline nounwind
define internal ptr @memcpy.inline(ptr noalias %0, ptr noalias %1, i64 %2) #5 {
  %4 = alloca ptr, align 8
  %5 = alloca ptr, align 8
  %6 = alloca i64, align 8
  store ptr %0, ptr %4, align 8
  store ptr %1, ptr %5, align 8
  store i64 %2, ptr %6, align 8
  %7 = load ptr, ptr %4, align 8
  %8 = load ptr, ptr %5, align 8
  %9 = load i64, ptr %6, align 8
  %10 = load ptr, ptr %4, align 8
  %11 = call i64 @llvm.objectsize.i64.p0(ptr %10, i1 false, i1 true, i1 true)
  %12 = call ptr @__memcpy_chk(ptr noundef %7, ptr noundef %8, i64 noundef %9, i64 noundef %11) #13
  ret ptr %12
}

; Function Attrs: nounwind null_pointer_is_valid sspstrong uwtable
define internal zeroext i1 @checked_strcpy(ptr noundef %0, i64 noundef %1, ptr noundef %2) #8 {
  %4 = alloca i1, align 1
  %5 = alloca ptr, align 8
  %6 = alloca i64, align 8
  %7 = alloca ptr, align 8
  %8 = alloca i64, align 8
  %9 = alloca i32, align 4
  store ptr %0, ptr %5, align 8
  store i64 %1, ptr %6, align 8
  store ptr %2, ptr %7, align 8
  call void @llvm.lifetime.start.p0(i64 8, ptr %8) #13
  %10 = load ptr, ptr %7, align 8
  %11 = call i64 @strlen(ptr noundef %10) #16
  %12 = add i64 %11, 1
  store i64 %12, ptr %8, align 8
  %13 = load i64, ptr %8, align 8
  %14 = load i64, ptr %6, align 8
  %15 = icmp ugt i64 %13, %14
  br i1 %15, label %16, label %17

16:                                               ; preds = %3
  store i1 false, ptr %4, align 1
  store i32 1, ptr %9, align 4
  br label %22

17:                                               ; preds = %3
  %18 = load ptr, ptr %5, align 8
  %19 = load ptr, ptr %7, align 8
  %20 = load i64, ptr %8, align 8
  %21 = call ptr @memcpy.inline(ptr noundef %18, ptr noundef %19, i64 noundef %20) #13
  store i1 true, ptr %4, align 1
  store i32 1, ptr %9, align 4
  br label %22

22:                                               ; preds = %17, %16
  call void @llvm.lifetime.end.p0(i64 8, ptr %8) #13
  %23 = load i1, ptr %4, align 1
  ret i1 %23
}

; Function Attrs: null_pointer_is_valid sspstrong uwtable
define internal zeroext i1 @parseString(ptr noundef %0, ptr noundef %1, i64 noundef %2, ptr noundef %3, ptr noundef %4, ptr noundef %5) #0 {
  %7 = alloca i1, align 1
  %8 = alloca ptr, align 8
  %9 = alloca ptr, align 8
  %10 = alloca i64, align 8
  %11 = alloca ptr, align 8
  %12 = alloca ptr, align 8
  %13 = alloca ptr, align 8
  store ptr %0, ptr %8, align 8
  store ptr %1, ptr %9, align 8
  store i64 %2, ptr %10, align 8
  store ptr %3, ptr %11, align 8
  store ptr %4, ptr %12, align 8
  store ptr %5, ptr %13, align 8
  %14 = load ptr, ptr %9, align 8
  %15 = load i64, ptr %10, align 8
  %16 = load ptr, ptr %8, align 8
  %17 = call zeroext i1 @checked_strcpy(ptr noundef %14, i64 noundef %15, ptr noundef %16)
  br i1 %17, label %23, label %18

18:                                               ; preds = %6
  %19 = load ptr, ptr %12, align 8
  store i32 -13, ptr %19, align 4
  %20 = load ptr, ptr %11, align 8
  %21 = call noalias ptr (ptr, ptr, ...) @wmem_strdup_printf(ptr noundef null, ptr noundef @.str.24, ptr noundef %20)
  %22 = load ptr, ptr %13, align 8
  store ptr %21, ptr %22, align 8
  store i1 false, ptr %7, align 1
  br label %24

23:                                               ; preds = %6
  store i1 true, ptr %7, align 1
  br label %24

24:                                               ; preds = %23, %18
  %25 = load i1, ptr %7, align 1
  ret i1 %25
}

; Function Attrs: null_pointer_is_valid sspstrong uwtable
define internal zeroext i1 @parseLogFileHeaderLine_hwrev(ptr noundef %0, ptr noundef %1, ptr noundef %2, ptr noundef %3) #0 {
  %5 = alloca ptr, align 8
  %6 = alloca ptr, align 8
  %7 = alloca ptr, align 8
  %8 = alloca ptr, align 8
  store ptr %0, ptr %5, align 8
  store ptr %1, ptr %6, align 8
  store ptr %2, ptr %7, align 8
  store ptr %3, ptr %8, align 8
  %9 = load ptr, ptr %6, align 8
  %10 = load ptr, ptr %5, align 8
  %11 = getelementptr inbounds nuw %struct.cLLog_private, ptr %10, i32 0, i32 2
  %12 = getelementptr inbounds [5 x i8], ptr %11, i64 0, i64 0
  %13 = load ptr, ptr %7, align 8
  %14 = load ptr, ptr %8, align 8
  %15 = call zeroext i1 @parseString(ptr noundef %9, ptr noundef %12, i64 noundef 5, ptr noundef @.str.23, ptr noundef %13, ptr noundef %14)
  ret i1 %15
}