; Function Attrs: null_pointer_is_valid sspstrong uwtable
define internal noundef zeroext i1 @parseLogFileHeaderLine_hwrev(ptr noundef %0, ptr noundef readonly captures(none) %1, ptr noundef writeonly captures(none) %2, ptr noundef writeonly captures(none) %3) #0 {
  %5 = tail call i64 @strlen(ptr noundef readonly %1) #12
  %6 = add i64 %5, 1
  %7 = icmp ult i64 %6, 6
  br i1 %7, label %checked_strcpy.exit.thread.i, label %checked_strcpy.exit.i

checked_strcpy.exit.thread.i:                     ; preds = %4
  %8 = getelementptr inbounds nuw i8, ptr %0, i64 8
  tail call void @llvm.memcpy.p0.p0.i64(ptr noundef nonnull align 1 %8, ptr noundef readonly align 1 %1, i64 noundef range(i64 0, 256) %6, i1 noundef false) #10
  br label %parseString.exit

checked_strcpy.exit.i:                            ; preds = %4
  store i32 -13, ptr %2, align 4
  %9 = tail call noalias ptr (ptr, ptr, ...) @wmem_strdup_printf(ptr noundef null, ptr noundef nonnull @.str.24, ptr noundef nonnull @.str.23)
  store ptr %9, ptr %3, align 8
  br label %parseString.exit

parseString.exit:                                 ; preds = %checked_strcpy.exit.thread.i, %checked_strcpy.exit.i
  ret i1 %7
}